ccopy_reg
_reconstructor
p0
(csklearn.preprocessing.data
MinMaxScaler
p1
c__builtin__
object
p2
Ntp3
Rp4
(dp5
S'data_min_'
p6
cnumpy.core.multiarray
_reconstruct
p7
(cnumpy
ndarray
p8
(I0
tp9
S'b'
p10
tp11
Rp12
(I1
(L2L
tp13
cnumpy
dtype
p14
(S'f8'
p15
I0
I1
tp16
Rp17
(I3
S'<'
p18
NNNI-1
I-1
I0
tp19
bI00
S'\xd1"\xdb\xf9~\xe6e\xc0\x14\\\xac\xa8\xc1\x1c8\xc0'
p20
tp21
bsS'feature_range'
p22
(I0
I1
tp23
sS'data_range_'
p24
g7
(g8
(I0
tp25
g10
tp26
Rp27
(I1
(L2L
tp28
g17
I00
S'(N\xa4\xea\r\x9ak@\xab>W[\xb1\xcbQ@'
p29
tp30
bsS'scale_'
p31
g7
(g8
(I0
tp32
g10
tp33
Rp34
(I1
(L2L
tp35
g17
I00
S'Z\xdc\x83\x1d\xae\x8cr?48\xcb\x97b\xc5\x8c?'
p36
tp37
bsS'data_max_'
p38
g7
(g8
(I0
tp39
g10
tp40
Rp41
(I1
(L2L
tp42
g17
I00
S'^\xad$\xc3;\xceF@LOX\xe2\x01\x89G@'
p43
tp44
bsS'n_samples_seen_'
p45
L558306L
sS'min_'
p46
g7
(g8
(I0
tp47
g10
tp48
Rp49
(I1
(L2L
tp50
g17
I00
S'\xbc\xe4+\x03\xdec\xe9?\xd2\x1c?\xc6\xe4\xad\xd5?'
p51
tp52
bsS'copy'
p53
I01
sb.